; ModuleID = '31/1537.c'
source_filename = "31/1537.c"
target datalayout = "e-m:e-p270:32:32-p271:32:32-p272:64:64-i64:64-f80:128-n8:16:32:64-S128"
target triple = "x86_64-pc-linux-gnu"

%struct.student = type { [100 x i8], [100 x i8], i8, i32, [100 x i8], [100 x i8], %struct.student*, %struct.student* }

@.str = private unnamed_addr constant [3 x i8] c"%s\00", align 1
@.str.1 = private unnamed_addr constant [4 x i8] c"end\00", align 1
@.str.2 = private unnamed_addr constant [15 x i8] c"%s %c %d %s %s\00", align 1
@.str.3 = private unnamed_addr constant [19 x i8] c"%s %s %c %d %s %s\0A\00", align 1

; Function Attrs: noinline nounwind uwtable
define dso_local void @main() #0 {
  %1 = alloca %struct.student*, align 8
  %2 = alloca %struct.student*, align 8
  %3 = alloca %struct.student*, align 8
  %4 = alloca %struct.student*, align 8
  %5 = alloca i32, align 4
  %6 = alloca [100 x i8], align 16
  store i32 0, i32* %5, align 4
  store %struct.student* null, %struct.student** %3, align 8
  store %struct.student* null, %struct.student** %2, align 8
  store %struct.student* null, %struct.student** %1, align 8
  br label %7

7:                                                ; preds = %52, %0
  %8 = getelementptr inbounds [100 x i8], [100 x i8]* %6, i64 0, i64 0
  %9 = call i32 (i8*, ...) @__isoc99_scanf(i8* getelementptr inbounds ([3 x i8], [3 x i8]* @.str, i64 0, i64 0), i8* %8)
  %10 = getelementptr inbounds [100 x i8], [100 x i8]* %6, i64 0, i64 0
  %11 = call i32 @strcmp(i8* %10, i8* getelementptr inbounds ([4 x i8], [4 x i8]* @.str.1, i64 0, i64 0)) #4
  %12 = icmp ne i32 %11, 0
  br i1 %12, label %13, label %54

13:                                               ; preds = %7
  %14 = load i32, i32* %5, align 4
  %15 = add nsw i32 %14, 1
  store i32 %15, i32* %5, align 4
  %16 = call noalias i8* @malloc(i64 424) #5
  %17 = bitcast i8* %16 to %struct.student*
  store %struct.student* %17, %struct.student** %1, align 8
  %18 = load %struct.student*, %struct.student** %1, align 8
  %19 = getelementptr inbounds %struct.student, %struct.student* %18, i32 0, i32 6
  store %struct.student* null, %struct.student** %19, align 8
  %20 = load %struct.student*, %struct.student** %1, align 8
  %21 = getelementptr inbounds %struct.student, %struct.student* %20, i32 0, i32 7
  store %struct.student* null, %struct.student** %21, align 8
  %22 = load %struct.student*, %struct.student** %1, align 8
  %23 = getelementptr inbounds %struct.student, %struct.student* %22, i32 0, i32 0
  %24 = getelementptr inbounds [100 x i8], [100 x i8]* %23, i64 0, i64 0
  %25 = getelementptr inbounds [100 x i8], [100 x i8]* %6, i64 0, i64 0
  %26 = call i8* @strcpy(i8* %24, i8* %25) #5
  %27 = load %struct.student*, %struct.student** %1, align 8
  %28 = getelementptr inbounds %struct.student, %struct.student* %27, i32 0, i32 1
  %29 = getelementptr inbounds [100 x i8], [100 x i8]* %28, i64 0, i64 0
  %30 = load %struct.student*, %struct.student** %1, align 8
  %31 = getelementptr inbounds %struct.student, %struct.student* %30, i32 0, i32 2
  %32 = load %struct.student*, %struct.student** %1, align 8
  %33 = getelementptr inbounds %struct.student, %struct.student* %32, i32 0, i32 3
  %34 = load %struct.student*, %struct.student** %1, align 8
  %35 = getelementptr inbounds %struct.student, %struct.student* %34, i32 0, i32 4
  %36 = getelementptr inbounds [100 x i8], [100 x i8]* %35, i64 0, i64 0
  %37 = load %struct.student*, %struct.student** %1, align 8
  %38 = getelementptr inbounds %struct.student, %struct.student* %37, i32 0, i32 5
  %39 = getelementptr inbounds [100 x i8], [100 x i8]* %38, i64 0, i64 0
  %40 = call i32 (i8*, ...) @__isoc99_scanf(i8* getelementptr inbounds ([15 x i8], [15 x i8]* @.str.2, i64 0, i64 0), i8* %29, i8* %31, i32* %33, i8* %36, i8* %39)
  %41 = load i32, i32* %5, align 4
  %42 = icmp eq i32 %41, 1
  br i1 %42, label %43, label %45

43:                                               ; preds = %13
  %44 = load %struct.student*, %struct.student** %1, align 8
  store %struct.student* %44, %struct.student** %3, align 8
  br label %52

45:                                               ; preds = %13
  %46 = load %struct.student*, %struct.student** %1, align 8
  %47 = load %struct.student*, %struct.student** %2, align 8
  %48 = getelementptr inbounds %struct.student, %struct.student* %47, i32 0, i32 7
  store %struct.student* %46, %struct.student** %48, align 8
  %49 = load %struct.student*, %struct.student** %2, align 8
  %50 = load %struct.student*, %struct.student** %1, align 8
  %51 = getelementptr inbounds %struct.student, %struct.student* %50, i32 0, i32 6
  store %struct.student* %49, %struct.student** %51, align 8
  br label %52

52:                                               ; preds = %45, %43
  %53 = load %struct.student*, %struct.student** %1, align 8
  store %struct.student* %53, %struct.student** %2, align 8
  br label %7

54:                                               ; preds = %7
  %55 = load %struct.student*, %struct.student** %2, align 8
  store %struct.student* %55, %struct.student** %4, align 8
  br label %56

56:                                               ; preds = %59, %54
  %57 = load %struct.student*, %struct.student** %2, align 8
  %58 = icmp ne %struct.student* %57, null
  br i1 %58, label %59, label %83

59:                                               ; preds = %56
  %60 = load %struct.student*, %struct.student** %2, align 8
  %61 = getelementptr inbounds %struct.student, %struct.student* %60, i32 0, i32 0
  %62 = getelementptr inbounds [100 x i8], [100 x i8]* %61, i64 0, i64 0
  %63 = load %struct.student*, %struct.student** %2, align 8
  %64 = getelementptr inbounds %struct.student, %struct.student* %63, i32 0, i32 1
  %65 = getelementptr inbounds [100 x i8], [100 x i8]* %64, i64 0, i64 0
  %66 = load %struct.student*, %struct.student** %2, align 8
  %67 = getelementptr inbounds %struct.student, %struct.student* %66, i32 0, i32 2
  %68 = load i8, i8* %67, align 8
  %69 = sext i8 %68 to i32
  %70 = load %struct.student*, %struct.student** %2, align 8
  %71 = getelementptr inbounds %struct.student, %struct.student* %70, i32 0, i32 3
  %72 = load i32, i32* %71, align 4
  %73 = load %struct.student*, %struct.student** %2, align 8
  %74 = getelementptr inbounds %struct.student, %struct.student* %73, i32 0, i32 4
  %75 = getelementptr inbounds [100 x i8], [100 x i8]* %74, i64 0, i64 0
  %76 = load %struct.student*, %struct.student** %2, align 8
  %77 = getelementptr inbounds %struct.student, %struct.student* %76, i32 0, i32 5
  %78 = getelementptr inbounds [100 x i8], [100 x i8]* %77, i64 0, i64 0
  %79 = call i32 (i8*, ...) @printf(i8* getelementptr inbounds ([19 x i8], [19 x i8]* @.str.3, i64 0, i64 0), i8* %62, i8* %65, i32 %69, i32 %72, i8* %75, i8* %78)
  %80 = load %struct.student*, %struct.student** %2, align 8
  %81 = getelementptr inbounds %struct.student, %struct.student* %80, i32 0, i32 6
  %82 = load %struct.student*, %struct.student** %81, align 8
  store %struct.student* %82, %struct.student** %2, align 8
  br label %56

83:                                               ; preds = %56
  ret void
}

declare dso_local i32 @__isoc99_scanf(i8*, ...) #1

; Function Attrs: nounwind readonly
declare dso_local i32 @strcmp(i8*, i8*) #2

; Function Attrs: nounwind
declare dso_local noalias i8* @malloc(i64) #3

; Function Attrs: nounwind
declare dso_local i8* @strcpy(i8*, i8*) #3

declare dso_local i32 @printf(i8*, ...) #1


!llvm.module.flags = !{!0}
!llvm.ident = !{!1}

!0 = !{i32 1, !"wchar_size", i32 4}
!1 = !{!"clang version 10.0.0-4ubuntu1 "}
